target datalayout = "e-m:e-p270:32:32-p271:32:32-p272:64:64-i64:64-i128:128-f80:128-n8:16:32:64-S128"
target triple = "x86_64-pc-linux-gnu"

%class.floatbuffer = type { ptr, i32, i32, i32, %class.QString }
%class.QString = type { ptr }

; Function Attrs: mustprogress nounwind uwtable
define noundef i32 @_ZN11floatbuffer6setvalEiif(ptr noundef nonnull align 8 dereferenceable(32) %0, i32 noundef %1, i32 noundef %2, float noundef %3) #4 align 2 {
  %5 = alloca i32, align 4
  %6 = alloca ptr, align 8
  %7 = alloca i32, align 4
  %8 = alloca i32, align 4
  %9 = alloca float, align 4
  store ptr %0, ptr %6, align 8
  store i32 %1, ptr %7, align 4
  store i32 %2, ptr %8, align 4
  store float %3, ptr %9, align 4
  %10 = load ptr, ptr %6, align 8
  %11 = getelementptr inbounds %class.floatbuffer, ptr %10, i32 0, i32 3
  %12 = load i32, ptr %11, align 8
  %13 = icmp ne i32 %12, 0
  br i1 %13, label %15, label %14

14:                                               ; preds = %4
  store i32 -1, ptr %5, align 4
  br label %44

15:                                               ; preds = %4
  %16 = load i32, ptr %7, align 4
  %17 = icmp slt i32 %16, 0
  br i1 %17, label %31, label %18

18:                                               ; preds = %15
  %19 = load i32, ptr %8, align 4
  %20 = icmp slt i32 %19, 0
  br i1 %20, label %31, label %21

21:                                               ; preds = %18
  %22 = load i32, ptr %7, align 4
  %23 = getelementptr inbounds %class.floatbuffer, ptr %10, i32 0, i32 1
  %24 = load i32, ptr %23, align 8
  %25 = icmp sgt i32 %22, %24
  br i1 %25, label %31, label %26

26:                                               ; preds = %21
  %27 = load i32, ptr %8, align 4
  %28 = getelementptr inbounds %class.floatbuffer, ptr %10, i32 0, i32 2
  %29 = load i32, ptr %28, align 4
  %30 = icmp sgt i32 %27, %29
  br i1 %30, label %31, label %32

31:                                               ; preds = %26, %21, %18, %15
  store i32 -1, ptr %5, align 4
  br label %44

32:                                               ; preds = %26
  %33 = load float, ptr %9, align 4
  %34 = getelementptr inbounds %class.floatbuffer, ptr %10, i32 0, i32 0
  %35 = load ptr, ptr %34, align 8
  %36 = load i32, ptr %8, align 4
  %37 = getelementptr inbounds %class.floatbuffer, ptr %10, i32 0, i32 1
  %38 = load i32, ptr %37, align 8
  %39 = mul nsw i32 %36, %38
  %40 = load i32, ptr %7, align 4
  %41 = add nsw i32 %39, %40
  %42 = sext i32 %41 to i64
  %43 = getelementptr inbounds float, ptr %35, i64 %42
  store float %33, ptr %43, align 4
  store i32 1, ptr %5, align 4
  br label %44

44:                                               ; preds = %32, %31, %14
  %45 = load i32, ptr %5, align 4
  ret i32 %45
}