; Function Attrs: mustprogress nofree norecurse nosync nounwind willreturn memory(write, argmem: readwrite, inaccessiblemem: none) uwtable
define noundef i32 @_ZN11floatbuffer6setvalEiif(ptr nocapture noundef nonnull readonly align 8 dereferenceable(32) %0, i32 noundef %1, i32 noundef %2, float noundef %3) local_unnamed_addr #15 align 2 {
  %5 = getelementptr inbounds i8, ptr %0, i64 16
  %6 = load i32, ptr %5, align 8
  %.not = icmp ne i32 %6, 0
  %7 = or i32 %2, %1
  %or.cond.not = icmp sgt i32 %7, -1
  %or.cond14 = and i1 %or.cond.not, %.not
  br i1 %or.cond14, label %8, label %21

8:                                                ; preds = %4
  %9 = getelementptr inbounds i8, ptr %0, i64 8
  %10 = load i32, ptr %9, align 8
  %11 = icmp slt i32 %10, %1
  %12 = getelementptr inbounds i8, ptr %0, i64 12
  %13 = load i32, ptr %12, align 4
  %14 = icmp slt i32 %13, %2
  %or.cond = select i1 %11, i1 true, i1 %14
  br i1 %or.cond, label %21, label %15

15:                                               ; preds = %8
  %16 = load ptr, ptr %0, align 8
  %17 = mul nsw i32 %10, %2
  %18 = add nsw i32 %17, %1
  %19 = sext i32 %18 to i64
  %20 = getelementptr inbounds float, ptr %16, i64 %19
  store float %3, ptr %20, align 4
  br label %21

21:                                               ; preds = %8, %4, %15
  %.0 = phi i32 [ 1, %15 ], [ -1, %4 ], [ -1, %8 ]
  ret i32 %.0
}